; Function Attrs: nounwind uwtable
define void @If_ManImproveNodeFaninUpdate(ptr readnone captures(none) %0, ptr noundef readonly %1, ptr noundef captures(none) %2, ptr noundef captures(none) %3) local_unnamed_addr #0 {
  %5 = getelementptr inbounds nuw i8, ptr %2, i64 4
  %6 = load i32, ptr %5, align 4, !tbaa !32
  %7 = getelementptr inbounds nuw i8, ptr %2, i64 8
  %8 = zext i32 %6 to i64
  %smin.i = tail call i32 @llvm.smin.i32(i32 %6, i32 0)
  br label %9

9:                                                ; preds = %12, %4
  %indvars.iv.i = phi i64 [ %13, %12 ], [ %8, %4 ]
  %10 = trunc nuw i64 %indvars.iv.i to i32
  %11 = icmp sgt i32 %10, 0
  br i1 %11, label %12, label %18

12:                                               ; preds = %9
  %13 = add nsw i64 %indvars.iv.i, -1
  %14 = load ptr, ptr %7, align 8, !tbaa !35
  %15 = getelementptr inbounds nuw ptr, ptr %14, i64 %13
  %16 = load ptr, ptr %15, align 8, !tbaa !37
  %17 = icmp eq ptr %16, %1
  br i1 %17, label %18, label %9, !llvm.loop !70

18:                                               ; preds = %12, %9
  %.0.in.lcssa.i = phi i32 [ %10, %12 ], [ %smin.i, %9 ]
  %19 = icmp slt i32 %.0.in.lcssa.i, %6
  br i1 %19, label %.lr.ph.i, label %Vec_PtrRemove.exit

.lr.ph.i:                                         ; preds = %18
  %20 = sext i32 %.0.in.lcssa.i to i64
  %wide.trip.count.i = sext i32 %6 to i64
  br label %21

21:                                               ; preds = %21, %.lr.ph.i
  %indvars.iv18.i = phi i64 [ %20, %.lr.ph.i ], [ %indvars.iv.next19.i, %21 ]
  %22 = load ptr, ptr %7, align 8, !tbaa !35
  %23 = getelementptr inbounds ptr, ptr %22, i64 %indvars.iv18.i
  %24 = load ptr, ptr %23, align 8, !tbaa !37
  %25 = getelementptr i8, ptr %23, i64 -8
  store ptr %24, ptr %25, align 8, !tbaa !37
  %indvars.iv.next19.i = add nsw i64 %indvars.iv18.i, 1
  %exitcond.not.i = icmp eq i64 %indvars.iv.next19.i, %wide.trip.count.i
  br i1 %exitcond.not.i, label %Vec_PtrRemove.exit, label %21, !llvm.loop !71

Vec_PtrRemove.exit:                               ; preds = %21, %18
  %26 = add nsw i32 %6, -1
  store i32 %26, ptr %5, align 4, !tbaa !32
  %27 = getelementptr i8, ptr %1, i64 24
  %.val = load ptr, ptr %27, align 8, !tbaa !45
  %28 = load i32, ptr %.val, align 8
  %29 = and i32 %28, 256
  %.not = icmp eq i32 %29, 0
  br i1 %.not, label %30, label %91

30:                                               ; preds = %Vec_PtrRemove.exit
  %31 = load i32, ptr %2, align 8, !tbaa !34
  %32 = icmp eq i32 %26, %31
  br i1 %32, label %33, label %.Vec_PtrGrow.exit11_crit_edge.i

.Vec_PtrGrow.exit11_crit_edge.i:                  ; preds = %30
  %.pre.i = load ptr, ptr %7, align 8, !tbaa !35
  br label %Vec_PtrPush.exit

33:                                               ; preds = %30
  %34 = icmp slt i32 %6, 17
  br i1 %34, label %35, label %42

35:                                               ; preds = %33
  %36 = load ptr, ptr %7, align 8, !tbaa !35
  %.not9.i.i = icmp eq ptr %36, null
  br i1 %.not9.i.i, label %39, label %37

37:                                               ; preds = %35
  %38 = tail call dereferenceable_or_null(128) ptr @realloc(ptr noundef nonnull %36, i64 noundef 128) #16
  br label %Vec_PtrGrow.exit.i

39:                                               ; preds = %35
  %40 = tail call noalias dereferenceable_or_null(128) ptr @malloc(i64 noundef 128) #15
  br label %Vec_PtrGrow.exit.i

Vec_PtrGrow.exit.i:                               ; preds = %39, %37
  %41 = phi ptr [ %38, %37 ], [ %40, %39 ]
  store ptr %41, ptr %7, align 8, !tbaa !35
  store i32 16, ptr %2, align 8, !tbaa !34
  br label %Vec_PtrPush.exit

42:                                               ; preds = %33
  %43 = shl nuw nsw i32 %26, 1
  %44 = load ptr, ptr %7, align 8, !tbaa !35
  %.not9.i10.i = icmp eq ptr %44, null
  %45 = zext nneg i32 %43 to i64
  %46 = shl nuw nsw i64 %45, 3
  br i1 %.not9.i10.i, label %49, label %47

47:                                               ; preds = %42
  %48 = tail call ptr @realloc(ptr noundef nonnull %44, i64 noundef %46) #16
  br label %51

49:                                               ; preds = %42
  %50 = tail call noalias ptr @malloc(i64 noundef %46) #15
  br label %51

51:                                               ; preds = %49, %47
  %52 = phi ptr [ %48, %47 ], [ %50, %49 ]
  store ptr %52, ptr %7, align 8, !tbaa !35
  store i32 %43, ptr %2, align 8, !tbaa !34
  br label %Vec_PtrPush.exit

Vec_PtrPush.exit:                                 ; preds = %.Vec_PtrGrow.exit11_crit_edge.i, %Vec_PtrGrow.exit.i, %51
  %53 = phi ptr [ %.pre.i, %.Vec_PtrGrow.exit11_crit_edge.i ], [ %52, %51 ], [ %41, %Vec_PtrGrow.exit.i ]
  %54 = load i32, ptr %5, align 4, !tbaa !32
  %55 = add nsw i32 %54, 1
  store i32 %55, ptr %5, align 4, !tbaa !32
  %56 = sext i32 %54 to i64
  %57 = getelementptr inbounds ptr, ptr %53, i64 %56
  store ptr %.val, ptr %57, align 8, !tbaa !37
  %58 = getelementptr inbounds nuw i8, ptr %3, i64 4
  %59 = load i32, ptr %58, align 4, !tbaa !32
  %60 = load i32, ptr %3, align 8, !tbaa !34
  %61 = icmp eq i32 %59, %60
  br i1 %61, label %62, label %.Vec_PtrGrow.exit11_crit_edge.i18

.Vec_PtrGrow.exit11_crit_edge.i18:                ; preds = %Vec_PtrPush.exit
  %.phi.trans.insert.i19 = getelementptr inbounds nuw i8, ptr %3, i64 8
  %.pre.i20 = load ptr, ptr %.phi.trans.insert.i19, align 8, !tbaa !35
  br label %Vec_PtrPush.exit24

62:                                               ; preds = %Vec_PtrPush.exit
  %63 = icmp slt i32 %59, 16
  br i1 %63, label %64, label %72

64:                                               ; preds = %62
  %65 = getelementptr inbounds nuw i8, ptr %3, i64 8
  %66 = load ptr, ptr %65, align 8, !tbaa !35
  %.not9.i.i22 = icmp eq ptr %66, null
  br i1 %.not9.i.i22, label %69, label %67

67:                                               ; preds = %64
  %68 = tail call dereferenceable_or_null(128) ptr @realloc(ptr noundef nonnull %66, i64 noundef 128) #16
  br label %Vec_PtrGrow.exit.i23

69:                                               ; preds = %64
  %70 = tail call noalias dereferenceable_or_null(128) ptr @malloc(i64 noundef 128) #15
  br label %Vec_PtrGrow.exit.i23

Vec_PtrGrow.exit.i23:                             ; preds = %69, %67
  %71 = phi ptr [ %68, %67 ], [ %70, %69 ]
  store ptr %71, ptr %65, align 8, !tbaa !35
  store i32 16, ptr %3, align 8, !tbaa !34
  br label %Vec_PtrPush.exit24

72:                                               ; preds = %62
  %73 = shl nuw nsw i32 %59, 1
  %74 = getelementptr inbounds nuw i8, ptr %3, i64 8
  %75 = load ptr, ptr %74, align 8, !tbaa !35
  %.not9.i10.i21 = icmp eq ptr %75, null
  %76 = zext nneg i32 %73 to i64
  %77 = shl nuw nsw i64 %76, 3
  br i1 %.not9.i10.i21, label %80, label %78

78:                                               ; preds = %72
  %79 = tail call ptr @realloc(ptr noundef nonnull %75, i64 noundef %77) #16
  br label %82

80:                                               ; preds = %72
  %81 = tail call noalias ptr @malloc(i64 noundef %77) #15
  br label %82

82:                                               ; preds = %80, %78
  %83 = phi ptr [ %79, %78 ], [ %81, %80 ]
  store ptr %83, ptr %74, align 8, !tbaa !35
  store i32 %73, ptr %3, align 8, !tbaa !34
  br label %Vec_PtrPush.exit24

Vec_PtrPush.exit24:                               ; preds = %.Vec_PtrGrow.exit11_crit_edge.i18, %Vec_PtrGrow.exit.i23, %82
  %84 = phi ptr [ %.pre.i20, %.Vec_PtrGrow.exit11_crit_edge.i18 ], [ %83, %82 ], [ %71, %Vec_PtrGrow.exit.i23 ]
  %85 = load i32, ptr %58, align 4, !tbaa !32
  %86 = add nsw i32 %85, 1
  store i32 %86, ptr %58, align 4, !tbaa !32
  %87 = sext i32 %85 to i64
  %88 = getelementptr inbounds ptr, ptr %84, i64 %87
  store ptr %.val, ptr %88, align 8, !tbaa !37
  %89 = load i32, ptr %.val, align 8
  %90 = or i32 %89, 256
  store i32 %90, ptr %.val, align 8
  br label %91

91:                                               ; preds = %Vec_PtrPush.exit24, %Vec_PtrRemove.exit
  %92 = getelementptr i8, ptr %1, i64 32
  %.val17 = load ptr, ptr %92, align 8, !tbaa !46
  %93 = load i32, ptr %.val17, align 8
  %94 = and i32 %93, 256
  %.not16 = icmp eq i32 %94, 0
  br i1 %.not16, label %95, label %157

95:                                               ; preds = %91
  %96 = load i32, ptr %5, align 4, !tbaa !32
  %97 = load i32, ptr %2, align 8, !tbaa !34
  %98 = icmp eq i32 %96, %97
  br i1 %98, label %99, label %.Vec_PtrGrow.exit11_crit_edge.i25

.Vec_PtrGrow.exit11_crit_edge.i25:                ; preds = %95
  %.pre.i27 = load ptr, ptr %7, align 8, !tbaa !35
  br label %Vec_PtrPush.exit31

99:                                               ; preds = %95
  %100 = icmp slt i32 %96, 16
  br i1 %100, label %101, label %108

101:                                              ; preds = %99
  %102 = load ptr, ptr %7, align 8, !tbaa !35
  %.not9.i.i29 = icmp eq ptr %102, null
  br i1 %.not9.i.i29, label %105, label %103

103:                                              ; preds = %101
  %104 = tail call dereferenceable_or_null(128) ptr @realloc(ptr noundef nonnull %102, i64 noundef 128) #16
  br label %Vec_PtrGrow.exit.i30

105:                                              ; preds = %101
  %106 = tail call noalias dereferenceable_or_null(128) ptr @malloc(i64 noundef 128) #15
  br label %Vec_PtrGrow.exit.i30

Vec_PtrGrow.exit.i30:                             ; preds = %105, %103
  %107 = phi ptr [ %104, %103 ], [ %106, %105 ]
  store ptr %107, ptr %7, align 8, !tbaa !35
  store i32 16, ptr %2, align 8, !tbaa !34
  br label %Vec_PtrPush.exit31

108:                                              ; preds = %99
  %109 = shl nuw nsw i32 %96, 1
  %110 = load ptr, ptr %7, align 8, !tbaa !35
  %.not9.i10.i28 = icmp eq ptr %110, null
  %111 = zext nneg i32 %109 to i64
  %112 = shl nuw nsw i64 %111, 3
  br i1 %.not9.i10.i28, label %115, label %113

113:                                              ; preds = %108
  %114 = tail call ptr @realloc(ptr noundef nonnull %110, i64 noundef %112) #16
  br label %117

115:                                              ; preds = %108
  %116 = tail call noalias ptr @malloc(i64 noundef %112) #15
  br label %117

117:                                              ; preds = %115, %113
  %118 = phi ptr [ %114, %113 ], [ %116, %115 ]
  store ptr %118, ptr %7, align 8, !tbaa !35
  store i32 %109, ptr %2, align 8, !tbaa !34
  br label %Vec_PtrPush.exit31

Vec_PtrPush.exit31:                               ; preds = %.Vec_PtrGrow.exit11_crit_edge.i25, %Vec_PtrGrow.exit.i30, %117
  %119 = phi ptr [ %.pre.i27, %.Vec_PtrGrow.exit11_crit_edge.i25 ], [ %118, %117 ], [ %107, %Vec_PtrGrow.exit.i30 ]
  %120 = load i32, ptr %5, align 4, !tbaa !32
  %121 = add nsw i32 %120, 1
  store i32 %121, ptr %5, align 4, !tbaa !32
  %122 = sext i32 %120 to i64
  %123 = getelementptr inbounds ptr, ptr %119, i64 %122
  store ptr %.val17, ptr %123, align 8, !tbaa !37
  %124 = getelementptr inbounds nuw i8, ptr %3, i64 4
  %125 = load i32, ptr %124, align 4, !tbaa !32
  %126 = load i32, ptr %3, align 8, !tbaa !34
  %127 = icmp eq i32 %125, %126
  br i1 %127, label %128, label %.Vec_PtrGrow.exit11_crit_edge.i32

.Vec_PtrGrow.exit11_crit_edge.i32:                ; preds = %Vec_PtrPush.exit31
  %.phi.trans.insert.i33 = getelementptr inbounds nuw i8, ptr %3, i64 8
  %.pre.i34 = load ptr, ptr %.phi.trans.insert.i33, align 8, !tbaa !35
  br label %Vec_PtrPush.exit38

128:                                              ; preds = %Vec_PtrPush.exit31
  %129 = icmp slt i32 %125, 16
  br i1 %129, label %130, label %138

130:                                              ; preds = %128
  %131 = getelementptr inbounds nuw i8, ptr %3, i64 8
  %132 = load ptr, ptr %131, align 8, !tbaa !35
  %.not9.i.i36 = icmp eq ptr %132, null
  br i1 %.not9.i.i36, label %135, label %133

133:                                              ; preds = %130
  %134 = tail call dereferenceable_or_null(128) ptr @realloc(ptr noundef nonnull %132, i64 noundef 128) #16
  br label %Vec_PtrGrow.exit.i37

135:                                              ; preds = %130
  %136 = tail call noalias dereferenceable_or_null(128) ptr @malloc(i64 noundef 128) #15
  br label %Vec_PtrGrow.exit.i37

Vec_PtrGrow.exit.i37:                             ; preds = %135, %133
  %137 = phi ptr [ %134, %133 ], [ %136, %135 ]
  store ptr %137, ptr %131, align 8, !tbaa !35
  store i32 16, ptr %3, align 8, !tbaa !34
  br label %Vec_PtrPush.exit38

138:                                              ; preds = %128
  %139 = shl nuw nsw i32 %125, 1
  %140 = getelementptr inbounds nuw i8, ptr %3, i64 8
  %141 = load ptr, ptr %140, align 8, !tbaa !35
  %.not9.i10.i35 = icmp eq ptr %141, null
  %142 = zext nneg i32 %139 to i64
  %143 = shl nuw nsw i64 %142, 3
  br i1 %.not9.i10.i35, label %146, label %144

144:                                              ; preds = %138
  %145 = tail call ptr @realloc(ptr noundef nonnull %141, i64 noundef %143) #16
  br label %148

146:                                              ; preds = %138
  %147 = tail call noalias ptr @malloc(i64 noundef %143) #15
  br label %148

148:                                              ; preds = %146, %144
  %149 = phi ptr [ %145, %144 ], [ %147, %146 ]
  store ptr %149, ptr %140, align 8, !tbaa !35
  store i32 %139, ptr %3, align 8, !tbaa !34
  br label %Vec_PtrPush.exit38

Vec_PtrPush.exit38:                               ; preds = %.Vec_PtrGrow.exit11_crit_edge.i32, %Vec_PtrGrow.exit.i37, %148
  %150 = phi ptr [ %.pre.i34, %.Vec_PtrGrow.exit11_crit_edge.i32 ], [ %149, %148 ], [ %137, %Vec_PtrGrow.exit.i37 ]
  %151 = load i32, ptr %124, align 4, !tbaa !32
  %152 = add nsw i32 %151, 1
  store i32 %152, ptr %124, align 4, !tbaa !32
  %153 = sext i32 %151 to i64
  %154 = getelementptr inbounds ptr, ptr %150, i64 %153
  store ptr %.val17, ptr %154, align 8, !tbaa !37
  %155 = load i32, ptr %.val17, align 8
  %156 = or i32 %155, 256
  store i32 %156, ptr %.val17, align 8
  br label %157

157:                                              ; preds = %Vec_PtrPush.exit38, %91
  ret void
}